target datalayout = "e-m:e-p270:32:32-p271:32:32-p272:64:64-i64:64-i128:128-f80:128-n8:16:32:64-S128"
target triple = "x86_64-pc-linux-gnu"

%struct.RelMapFile = type { i32, i32, [64 x %struct.RelMapping], i32 }
%struct.RelMapping = type { i32, i32 }
%struct.xl_relmap_update = type { i32, i32, i32, [0 x i8] }
%struct.RelFileLocator = type { i32, i32, i32 }

@.str.1 = private unnamed_addr constant [12 x i8] c"relmapper.c\00", align 1
@.str.11 = private unnamed_addr constant [6 x i8] c"%s/%s\00", align 1
@.str.12 = private unnamed_addr constant [16 x i8] c"pg_filenode.map\00", align 1
@.str.13 = private unnamed_addr constant [29 x i8] c"could not open file \22%s\22: %m\00", align 1
@.str.16 = private unnamed_addr constant [30 x i8] c"could not close file \22%s\22: %m\00", align 1
@pg_comp_crc32c = external global ptr, align 8
@my_wait_event_info = external global ptr, align 8
@.str.19 = private unnamed_addr constant [40 x i8] c"attempt to write bogus relation mapping\00", align 1
@__func__.write_relmap_file = private unnamed_addr constant [18 x i8] c"write_relmap_file\00", align 1
@.str.20 = private unnamed_addr constant [20 x i8] c"pg_filenode.map.tmp\00", align 1
@.str.21 = private unnamed_addr constant [30 x i8] c"could not write file \22%s\22: %m\00", align 1
@CritSectionCount = external global i32, align 4

; Function Attrs: inlinehint nounwind uwtable
define internal void @pgstat_report_wait_end() #6 {
  %1 = load ptr, ptr @my_wait_event_info, align 8
  store volatile i32 0, ptr %1, align 4
  ret void
}

; Function Attrs: inlinehint nounwind uwtable
define internal void @pgstat_report_wait_start(i32 noundef %0) #6 {
  %2 = alloca i32, align 4
  store i32 %0, ptr %2, align 4
  %3 = load i32, ptr %2, align 4
  %4 = load ptr, ptr @my_wait_event_info, align 8
  store volatile i32 %3, ptr %4, align 4
  ret void
}

; Function Attrs: nounwind uwtable
define internal void @write_relmap_file(ptr noundef %0, i1 noundef zeroext %1, i1 noundef zeroext %2, i1 noundef zeroext %3, i32 noundef %4, i32 noundef %5, ptr noundef %6) #0 {
  %8 = alloca ptr, align 8
  %9 = alloca i8, align 1
  %10 = alloca i8, align 1
  %11 = alloca i8, align 1
  %12 = alloca i32, align 4
  %13 = alloca i32, align 4
  %14 = alloca ptr, align 8
  %15 = alloca i32, align 4
  %16 = alloca [1024 x i8], align 16
  %17 = alloca [1024 x i8], align 16
  %18 = alloca %struct.xl_relmap_update, align 4
  %19 = alloca i64, align 8
  %20 = alloca i32, align 4
  %21 = alloca %struct.RelFileLocator, align 4
  %22 = alloca { i64, i32 }, align 4
  store ptr %0, ptr %8, align 8
  %23 = zext i1 %1 to i8
  store i8 %23, ptr %9, align 1
  %24 = zext i1 %2 to i8
  store i8 %24, ptr %10, align 1
  %25 = zext i1 %3 to i8
  store i8 %25, ptr %11, align 1
  store i32 %4, ptr %12, align 4
  store i32 %5, ptr %13, align 4
  store ptr %6, ptr %14, align 8
  call void @llvm.lifetime.start.p0(i64 4, ptr %15) #8
  call void @llvm.lifetime.start.p0(i64 1024, ptr %16) #8
  call void @llvm.lifetime.start.p0(i64 1024, ptr %17) #8
  %26 = load ptr, ptr %8, align 8
  %27 = getelementptr inbounds nuw %struct.RelMapFile, ptr %26, i32 0, i32 0
  store i32 5842711, ptr %27, align 4
  %28 = load ptr, ptr %8, align 8
  %29 = getelementptr inbounds nuw %struct.RelMapFile, ptr %28, i32 0, i32 1
  %30 = load i32, ptr %29, align 4
  %31 = icmp slt i32 %30, 0
  br i1 %31, label %37, label %32

32:                                               ; preds = %7
  %33 = load ptr, ptr %8, align 8
  %34 = getelementptr inbounds nuw %struct.RelMapFile, ptr %33, i32 0, i32 1
  %35 = load i32, ptr %34, align 4
  %36 = icmp sgt i32 %35, 64
  br i1 %36, label %37, label %48

37:                                               ; preds = %32, %7
  br label %38

38:                                               ; preds = %37
  br i1 true, label %39, label %41

39:                                               ; preds = %38
  %40 = call zeroext i1 @errstart_cold(i32 noundef 21, ptr noundef null) #9
  br i1 %40, label %43, label %45

41:                                               ; preds = %38
  %42 = call zeroext i1 @errstart(i32 noundef 21, ptr noundef null)
  br i1 %42, label %43, label %45

43:                                               ; preds = %41, %39
  %44 = call i32 (ptr, ...) @errmsg_internal(ptr noundef @.str.19)
  call void @errfinish(ptr noundef @.str.1, i32 noundef 910, ptr noundef @__func__.write_relmap_file)
  br label %45

45:                                               ; preds = %43, %41, %39
  unreachable

46:                                               ; No predecessors!
  br label %47

47:                                               ; preds = %46
  br label %48

48:                                               ; preds = %47, %32
  %49 = load ptr, ptr %8, align 8
  %50 = getelementptr inbounds nuw %struct.RelMapFile, ptr %49, i32 0, i32 3
  store i32 -1, ptr %50, align 4
  %51 = load ptr, ptr @pg_comp_crc32c, align 8
  %52 = load ptr, ptr %8, align 8
  %53 = getelementptr inbounds nuw %struct.RelMapFile, ptr %52, i32 0, i32 3
  %54 = load i32, ptr %53, align 4
  %55 = load ptr, ptr %8, align 8
  %56 = call i32 %51(i32 noundef %54, ptr noundef %55, i64 noundef 520)
  %57 = load ptr, ptr %8, align 8
  %58 = getelementptr inbounds nuw %struct.RelMapFile, ptr %57, i32 0, i32 3
  store i32 %56, ptr %58, align 4
  %59 = load ptr, ptr %8, align 8
  %60 = getelementptr inbounds nuw %struct.RelMapFile, ptr %59, i32 0, i32 3
  %61 = load i32, ptr %60, align 4
  %62 = xor i32 %61, -1
  store i32 %62, ptr %60, align 4
  %63 = getelementptr inbounds [1024 x i8], ptr %16, i64 0, i64 0
  %64 = load ptr, ptr %14, align 8
  %65 = call i32 (ptr, i64, ptr, ...) @pg_snprintf(ptr noundef %63, i64 noundef 1024, ptr noundef @.str.11, ptr noundef %64, ptr noundef @.str.12)
  %66 = getelementptr inbounds [1024 x i8], ptr %17, i64 0, i64 0
  %67 = load ptr, ptr %14, align 8
  %68 = call i32 (ptr, i64, ptr, ...) @pg_snprintf(ptr noundef %66, i64 noundef 1024, ptr noundef @.str.11, ptr noundef %67, ptr noundef @.str.20)
  %69 = getelementptr inbounds [1024 x i8], ptr %17, i64 0, i64 0
  %70 = call i32 @OpenTransientFile(ptr noundef %69, i32 noundef 577)
  store i32 %70, ptr %15, align 4
  %71 = load i32, ptr %15, align 4
  %72 = icmp slt i32 %71, 0
  br i1 %72, label %73, label %86

73:                                               ; preds = %48
  br label %74

74:                                               ; preds = %73
  br i1 true, label %75, label %77

75:                                               ; preds = %74
  %76 = call zeroext i1 @errstart_cold(i32 noundef 21, ptr noundef null) #9
  br i1 %76, label %79, label %83

77:                                               ; preds = %74
  %78 = call zeroext i1 @errstart(i32 noundef 21, ptr noundef null)
  br i1 %78, label %79, label %83

79:                                               ; preds = %77, %75
  %80 = call i32 @errcode_for_file_access()
  %81 = getelementptr inbounds [1024 x i8], ptr %17, i64 0, i64 0
  %82 = call i32 (ptr, ...) @errmsg(ptr noundef @.str.13, ptr noundef %81)
  call void @errfinish(ptr noundef @.str.1, i32 noundef 936, ptr noundef @__func__.write_relmap_file)
  br label %83

83:                                               ; preds = %79, %77, %75
  unreachable

84:                                               ; No predecessors!
  br label %85

85:                                               ; preds = %84
  br label %86

86:                                               ; preds = %85, %48
  call void @pgstat_report_wait_start(i32 noundef 167772198)
  %87 = load i32, ptr %15, align 4
  %88 = load ptr, ptr %8, align 8
  %89 = call i64 @write(i32 noundef %87, ptr noundef %88, i64 noundef 524)
  %90 = icmp ne i64 %89, 524
  br i1 %90, label %91, label %110

91:                                               ; preds = %86
  %92 = call ptr @__errno_location() #10
  %93 = load i32, ptr %92, align 4
  %94 = icmp eq i32 %93, 0
  br i1 %94, label %95, label %97

95:                                               ; preds = %91
  %96 = call ptr @__errno_location() #10
  store i32 28, ptr %96, align 4
  br label %97

97:                                               ; preds = %95, %91
  br label %98

98:                                               ; preds = %97
  br i1 true, label %99, label %101

99:                                               ; preds = %98
  %100 = call zeroext i1 @errstart_cold(i32 noundef 21, ptr noundef null) #9
  br i1 %100, label %103, label %107

101:                                              ; preds = %98
  %102 = call zeroext i1 @errstart(i32 noundef 21, ptr noundef null)
  br i1 %102, label %103, label %107

103:                                              ; preds = %101, %99
  %104 = call i32 @errcode_for_file_access()
  %105 = getelementptr inbounds [1024 x i8], ptr %17, i64 0, i64 0
  %106 = call i32 (ptr, ...) @errmsg(ptr noundef @.str.21, ptr noundef %105)
  call void @errfinish(ptr noundef @.str.1, i32 noundef 948, ptr noundef @__func__.write_relmap_file)
  br label %107

107:                                              ; preds = %103, %101, %99
  unreachable

108:                                              ; No predecessors!
  br label %109

109:                                              ; preds = %108
  br label %110

110:                                              ; preds = %109, %86
  call void @pgstat_report_wait_end()
  %111 = load i32, ptr %15, align 4
  %112 = call i32 @CloseTransientFile(i32 noundef %111)
  %113 = icmp ne i32 %112, 0
  br i1 %113, label %114, label %127

114:                                              ; preds = %110
  br label %115

115:                                              ; preds = %114
  br i1 true, label %116, label %118

116:                                              ; preds = %115
  %117 = call zeroext i1 @errstart_cold(i32 noundef 21, ptr noundef null) #9
  br i1 %117, label %120, label %124

118:                                              ; preds = %115
  %119 = call zeroext i1 @errstart(i32 noundef 21, ptr noundef null)
  br i1 %119, label %120, label %124

120:                                              ; preds = %118, %116
  %121 = call i32 @errcode_for_file_access()
  %122 = getelementptr inbounds [1024 x i8], ptr %17, i64 0, i64 0
  %123 = call i32 (ptr, ...) @errmsg(ptr noundef @.str.16, ptr noundef %122)
  call void @errfinish(ptr noundef @.str.1, i32 noundef 957, ptr noundef @__func__.write_relmap_file)
  br label %124

124:                                              ; preds = %120, %118, %116
  unreachable

125:                                              ; No predecessors!
  br label %126

126:                                              ; preds = %125
  br label %127

127:                                              ; preds = %126, %110
  %128 = load i8, ptr %9, align 1, !range !4, !noundef !5
  %129 = trunc i8 %128 to i1
  br i1 %129, label %130, label %141

130:                                              ; preds = %127
  call void @llvm.lifetime.start.p0(i64 12, ptr %18) #8
  call void @llvm.lifetime.start.p0(i64 8, ptr %19) #8
  %131 = load volatile i32, ptr @CritSectionCount, align 4
  %132 = add i32 %131, 1
  store volatile i32 %132, ptr @CritSectionCount, align 4
  %133 = load i32, ptr %12, align 4
  %134 = getelementptr inbounds nuw %struct.xl_relmap_update, ptr %18, i32 0, i32 0
  store i32 %133, ptr %134, align 4
  %135 = load i32, ptr %13, align 4
  %136 = getelementptr inbounds nuw %struct.xl_relmap_update, ptr %18, i32 0, i32 1
  store i32 %135, ptr %136, align 4
  %137 = getelementptr inbounds nuw %struct.xl_relmap_update, ptr %18, i32 0, i32 2
  store i32 524, ptr %137, align 4
  call void @XLogBeginInsert()
  call void @XLogRegisterData(ptr noundef %18, i32 noundef 12)
  %138 = load ptr, ptr %8, align 8
  call void @XLogRegisterData(ptr noundef %138, i32 noundef 524)
  %139 = call i64 @XLogInsert(i8 noundef zeroext 7, i8 noundef zeroext 0)
  store i64 %139, ptr %19, align 8
  %140 = load i64, ptr %19, align 8
  call void @XLogFlush(i64 noundef %140)
  call void @llvm.lifetime.end.p0(i64 8, ptr %19) #8
  call void @llvm.lifetime.end.p0(i64 12, ptr %18) #8
  br label %141

141:                                              ; preds = %130, %127
  call void @pgstat_report_wait_start(i32 noundef 167772197)
  %142 = getelementptr inbounds [1024 x i8], ptr %17, i64 0, i64 0
  %143 = getelementptr inbounds [1024 x i8], ptr %16, i64 0, i64 0
  %144 = call i32 @durable_rename(ptr noundef %142, ptr noundef %143, i32 noundef 21)
  call void @pgstat_report_wait_end()
  %145 = load i8, ptr %10, align 1, !range !4, !noundef !5
  %146 = trunc i8 %145 to i1
  br i1 %146, label %147, label %149

147:                                              ; preds = %141
  %148 = load i32, ptr %12, align 4
  call void @CacheInvalidateRelmap(i32 noundef %148)
  br label %149

149:                                              ; preds = %147, %141
  %150 = load i8, ptr %11, align 1, !range !4, !noundef !5
  %151 = trunc i8 %150 to i1
  br i1 %151, label %152, label %180

152:                                              ; preds = %149
  call void @llvm.lifetime.start.p0(i64 4, ptr %20) #8
  store i32 0, ptr %20, align 4
  br label %153

153:                                              ; preds = %176, %152
  %154 = load i32, ptr %20, align 4
  %155 = load ptr, ptr %8, align 8
  %156 = getelementptr inbounds nuw %struct.RelMapFile, ptr %155, i32 0, i32 1
  %157 = load i32, ptr %156, align 4
  %158 = icmp slt i32 %154, %157
  br i1 %158, label %159, label %179

159:                                              ; preds = %153
  call void @llvm.lifetime.start.p0(i64 12, ptr %21) #8
  %160 = load i32, ptr %13, align 4
  %161 = getelementptr inbounds nuw %struct.RelFileLocator, ptr %21, i32 0, i32 0
  store i32 %160, ptr %161, align 4
  %162 = load i32, ptr %12, align 4
  %163 = getelementptr inbounds nuw %struct.RelFileLocator, ptr %21, i32 0, i32 1
  store i32 %162, ptr %163, align 4
  %164 = load ptr, ptr %8, align 8
  %165 = getelementptr inbounds nuw %struct.RelMapFile, ptr %164, i32 0, i32 2
  %166 = load i32, ptr %20, align 4
  %167 = sext i32 %166 to i64
  %168 = getelementptr inbounds [64 x %struct.RelMapping], ptr %165, i64 0, i64 %167
  %169 = getelementptr inbounds nuw %struct.RelMapping, ptr %168, i32 0, i32 1
  %170 = load i32, ptr %169, align 4
  %171 = getelementptr inbounds nuw %struct.RelFileLocator, ptr %21, i32 0, i32 2
  store i32 %170, ptr %171, align 4
  call void @llvm.memcpy.p0.p0.i64(ptr align 4 %22, ptr align 4 %21, i64 12, i1 false)
  %172 = getelementptr inbounds nuw { i64, i32 }, ptr %22, i32 0, i32 0
  %173 = load i64, ptr %172, align 4
  %174 = getelementptr inbounds nuw { i64, i32 }, ptr %22, i32 0, i32 1
  %175 = load i32, ptr %174, align 4
  call void @RelationPreserveStorage(i64 %173, i32 %175, i1 noundef zeroext false)
  call void @llvm.lifetime.end.p0(i64 12, ptr %21) #8
  br label %176

176:                                              ; preds = %159
  %177 = load i32, ptr %20, align 4
  %178 = add i32 %177, 1
  store i32 %178, ptr %20, align 4
  br label %153, !llvm.loop !16

179:                                              ; preds = %153
  call void @llvm.lifetime.end.p0(i64 4, ptr %20) #8
  br label %180

180:                                              ; preds = %179, %149
  %181 = load i8, ptr %9, align 1, !range !4, !noundef !5
  %182 = trunc i8 %181 to i1
  br i1 %182, label %183, label %189

183:                                              ; preds = %180
  br label %184

184:                                              ; preds = %183
  %185 = load volatile i32, ptr @CritSectionCount, align 4
  %186 = add i32 %185, -1
  store volatile i32 %186, ptr @CritSectionCount, align 4
  br label %187

187:                                              ; preds = %184
  br label %188

188:                                              ; preds = %187
  br label %189

189:                                              ; preds = %188, %180
  call void @llvm.lifetime.end.p0(i64 1024, ptr %17) #8
  call void @llvm.lifetime.end.p0(i64 1024, ptr %16) #8
  call void @llvm.lifetime.end.p0(i64 4, ptr %15) #8
  ret void
}