; Function Attrs: nounwind uwtable
define internal fastcc void @write_relmap_file(ptr noundef initializes((0, 4)) %0, i1 noundef zeroext %1, i1 noundef zeroext %2, i1 noundef zeroext %3, i32 noundef %4, i32 noundef %5, ptr noundef %6) unnamed_addr #2 {
  %8 = alloca [1024 x i8], align 16
  %9 = alloca [1024 x i8], align 16
  %10 = alloca %struct.xl_relmap_update, align 4
  call void @llvm.lifetime.start.p0(i64 1024, ptr nonnull %8) #12
  call void @llvm.lifetime.start.p0(i64 1024, ptr nonnull %9) #12
  store i32 5842711, ptr %0, align 4
  %11 = getelementptr inbounds nuw i8, ptr %0, i64 4
  %12 = load i32, ptr %11, align 4
  %or.cond = icmp ugt i32 %12, 64
  br i1 %or.cond, label %13, label %16

13:                                               ; preds = %7
  %14 = tail call zeroext i1 @errstart_cold(i32 noundef 21, ptr noundef null) #13
  tail call void @llvm.assume(i1 %14)
  %15 = tail call i32 (ptr, ...) @errmsg_internal(ptr noundef nonnull @.str.19) #12
  tail call void @errfinish(ptr noundef nonnull @.str.1, i32 noundef 910, ptr noundef nonnull @__func__.write_relmap_file) #12
  unreachable

16:                                               ; preds = %7
  %17 = getelementptr inbounds nuw i8, ptr %0, i64 520
  store i32 -1, ptr %17, align 4
  %18 = load ptr, ptr @pg_comp_crc32c, align 8
  %19 = tail call i32 %18(i32 noundef -1, ptr noundef nonnull %0, i64 noundef 520) #12
  %20 = xor i32 %19, -1
  store i32 %20, ptr %17, align 4
  %21 = call i32 (ptr, i64, ptr, ...) @pg_snprintf(ptr noundef nonnull %8, i64 noundef 1024, ptr noundef nonnull @.str.11, ptr noundef %6, ptr noundef nonnull @.str.12) #12
  %22 = call i32 (ptr, i64, ptr, ...) @pg_snprintf(ptr noundef nonnull %9, i64 noundef 1024, ptr noundef nonnull @.str.11, ptr noundef %6, ptr noundef nonnull @.str.20) #12
  %23 = call i32 @OpenTransientFile(ptr noundef nonnull %9, i32 noundef 577) #12
  %24 = icmp slt i32 %23, 0
  br i1 %24, label %25, label %29

25:                                               ; preds = %16
  %26 = call zeroext i1 @errstart_cold(i32 noundef 21, ptr noundef null) #13
  call void @llvm.assume(i1 %26)
  %27 = call i32 @errcode_for_file_access() #12
  %28 = call i32 (ptr, ...) @errmsg(ptr noundef nonnull @.str.13, ptr noundef nonnull %9) #12
  call void @errfinish(ptr noundef nonnull @.str.1, i32 noundef 936, ptr noundef nonnull @__func__.write_relmap_file) #12
  unreachable

29:                                               ; preds = %16
  %30 = load ptr, ptr @my_wait_event_info, align 8
  store volatile i32 167772198, ptr %30, align 4
  %31 = call i64 @write(i32 noundef %23, ptr noundef nonnull %0, i64 noundef 524) #12
  %.not = icmp eq i64 %31, 524
  br i1 %.not, label %41, label %32

32:                                               ; preds = %29
  %33 = tail call ptr @__errno_location() #14
  %34 = load i32, ptr %33, align 4
  %35 = icmp eq i32 %34, 0
  br i1 %35, label %36, label %37

36:                                               ; preds = %32
  store i32 28, ptr %33, align 4
  br label %37

37:                                               ; preds = %36, %32
  %38 = call zeroext i1 @errstart_cold(i32 noundef 21, ptr noundef null) #13
  call void @llvm.assume(i1 %38)
  %39 = call i32 @errcode_for_file_access() #12
  %40 = call i32 (ptr, ...) @errmsg(ptr noundef nonnull @.str.21, ptr noundef nonnull %9) #12
  call void @errfinish(ptr noundef nonnull @.str.1, i32 noundef 948, ptr noundef nonnull @__func__.write_relmap_file) #12
  unreachable

41:                                               ; preds = %29
  %42 = load ptr, ptr @my_wait_event_info, align 8
  store volatile i32 0, ptr %42, align 4
  %43 = call i32 @CloseTransientFile(i32 noundef %23) #12
  %.not32 = icmp eq i32 %43, 0
  br i1 %.not32, label %48, label %44

44:                                               ; preds = %41
  %45 = call zeroext i1 @errstart_cold(i32 noundef 21, ptr noundef null) #13
  call void @llvm.assume(i1 %45)
  %46 = call i32 @errcode_for_file_access() #12
  %47 = call i32 (ptr, ...) @errmsg(ptr noundef nonnull @.str.16, ptr noundef nonnull %9) #12
  call void @errfinish(ptr noundef nonnull @.str.1, i32 noundef 957, ptr noundef nonnull @__func__.write_relmap_file) #12
  unreachable

48:                                               ; preds = %41
  br i1 %1, label %49, label %55

49:                                               ; preds = %48
  call void @llvm.lifetime.start.p0(i64 12, ptr nonnull %10) #12
  %50 = load volatile i32, ptr @CritSectionCount, align 4
  %51 = add i32 %50, 1
  store volatile i32 %51, ptr @CritSectionCount, align 4
  store i32 %4, ptr %10, align 4
  %52 = getelementptr inbounds nuw i8, ptr %10, i64 4
  store i32 %5, ptr %52, align 4
  %53 = getelementptr inbounds nuw i8, ptr %10, i64 8
  store i32 524, ptr %53, align 4
  call void @XLogBeginInsert() #12
  call void @XLogRegisterData(ptr noundef nonnull %10, i32 noundef 12) #12
  call void @XLogRegisterData(ptr noundef nonnull %0, i32 noundef 524) #12
  %54 = call i64 @XLogInsert(i8 noundef zeroext 7, i8 noundef zeroext 0) #12
  call void @XLogFlush(i64 noundef %54) #12
  call void @llvm.lifetime.end.p0(i64 12, ptr nonnull %10) #12
  br label %55

55:                                               ; preds = %49, %48
  %56 = load ptr, ptr @my_wait_event_info, align 8
  store volatile i32 167772197, ptr %56, align 4
  %57 = call i32 @durable_rename(ptr noundef nonnull %9, ptr noundef nonnull %8, i32 noundef 21) #12
  %58 = load ptr, ptr @my_wait_event_info, align 8
  store volatile i32 0, ptr %58, align 4
  br i1 %2, label %59, label %60

59:                                               ; preds = %55
  call void @CacheInvalidateRelmap(i32 noundef %4) #12
  br label %60

60:                                               ; preds = %59, %55
  br i1 %3, label %.preheader, label %.loopexit

.preheader:                                       ; preds = %60
  %61 = load i32, ptr %11, align 4
  %62 = icmp sgt i32 %61, 0
  br i1 %62, label %.lr.ph, label %.loopexit

.lr.ph:                                           ; preds = %.preheader
  %.sroa.01.0.insert.ext = zext i32 %5 to i64
  %.sroa.01.4.insert.ext = zext i32 %4 to i64
  %.sroa.01.4.insert.shift = shl nuw i64 %.sroa.01.4.insert.ext, 32
  %.sroa.01.4.insert.insert = or disjoint i64 %.sroa.01.4.insert.shift, %.sroa.01.0.insert.ext
  %63 = getelementptr i8, ptr %0, i64 12
  br label %64

64:                                               ; preds = %.lr.ph, %64
  %indvars.iv = phi i64 [ 0, %.lr.ph ], [ %indvars.iv.next, %64 ]
  %.idx = shl nuw nsw i64 %indvars.iv, 3
  %65 = getelementptr i8, ptr %63, i64 %.idx
  %66 = load i32, ptr %65, align 4
  call void @RelationPreserveStorage(i64 %.sroa.01.4.insert.insert, i32 %66, i1 noundef zeroext false) #12
  %indvars.iv.next = add nuw nsw i64 %indvars.iv, 1
  %67 = load i32, ptr %11, align 4
  %68 = sext i32 %67 to i64
  %69 = icmp slt i64 %indvars.iv.next, %68
  br i1 %69, label %64, label %.loopexit, !llvm.loop !14

.loopexit:                                        ; preds = %64, %.preheader, %60
  br i1 %1, label %70, label %73

70:                                               ; preds = %.loopexit
  %71 = load volatile i32, ptr @CritSectionCount, align 4
  %72 = add i32 %71, -1
  store volatile i32 %72, ptr @CritSectionCount, align 4
  br label %73

73:                                               ; preds = %70, %.loopexit
  call void @llvm.lifetime.end.p0(i64 1024, ptr nonnull %9) #12
  call void @llvm.lifetime.end.p0(i64 1024, ptr nonnull %8) #12
  ret void
}